; ModuleID = '50/214.c'
source_filename = "50/214.c"
target datalayout = "e-m:e-p270:32:32-p271:32:32-p272:64:64-i64:64-f80:128-n8:16:32:64-S128"
target triple = "x86_64-pc-linux-gnu"

@.str = private unnamed_addr constant [3 x i8] c"%d\00", align 1
@.str.1 = private unnamed_addr constant [4 x i8] c"%d\0A\00", align 1

; Function Attrs: noinline nounwind uwtable
define dso_local i32 @f(i32 %0, i32 %1, i32 %2) #0 {
  %4 = alloca i32, align 4
  %5 = alloca i32, align 4
  %6 = alloca i32, align 4
  %7 = alloca i32, align 4
  %8 = alloca i32, align 4
  store i32 %0, i32* %4, align 4
  store i32 %1, i32* %5, align 4
  store i32 %2, i32* %6, align 4
  %9 = load i32, i32* %6, align 4
  %10 = sub nsw i32 %9, 1
  store i32 %10, i32* %8, align 4
  store i32 1, i32* %7, align 4
  br label %11

11:                                               ; preds = %38, %3
  %12 = load i32, i32* %7, align 4
  %13 = load i32, i32* %5, align 4
  %14 = icmp slt i32 %12, %13
  br i1 %14, label %15, label %41

15:                                               ; preds = %11
  %16 = load i32, i32* %7, align 4
  %17 = icmp eq i32 %16, 2
  br i1 %17, label %18, label %21

18:                                               ; preds = %15
  %19 = load i32, i32* %8, align 4
  %20 = add nsw i32 %19, 28
  store i32 %20, i32* %8, align 4
  br label %37

21:                                               ; preds = %15
  %22 = load i32, i32* %7, align 4
  %23 = icmp slt i32 %22, 8
  br i1 %23, label %24, label %30

24:                                               ; preds = %21
  %25 = load i32, i32* %8, align 4
  %26 = add nsw i32 %25, 30
  %27 = load i32, i32* %7, align 4
  %28 = srem i32 %27, 2
  %29 = add nsw i32 %26, %28
  store i32 %29, i32* %8, align 4
  br label %36

30:                                               ; preds = %21
  %31 = load i32, i32* %8, align 4
  %32 = add nsw i32 %31, 31
  %33 = load i32, i32* %7, align 4
  %34 = srem i32 %33, 2
  %35 = sub nsw i32 %32, %34
  store i32 %35, i32* %8, align 4
  br label %36

36:                                               ; preds = %30, %24
  br label %37

37:                                               ; preds = %36, %18
  br label %38

38:                                               ; preds = %37
  %39 = load i32, i32* %7, align 4
  %40 = add nsw i32 %39, 1
  store i32 %40, i32* %7, align 4
  br label %11

41:                                               ; preds = %11
  %42 = load i32, i32* %4, align 4
  %43 = load i32, i32* %8, align 4
  %44 = srem i32 %43, 7
  %45 = add nsw i32 %42, %44
  %46 = srem i32 %45, 7
  store i32 %46, i32* %8, align 4
  %47 = load i32, i32* %8, align 4
  ret i32 %47
}

; Function Attrs: noinline nounwind uwtable
define dso_local void @main() #0 {
  %1 = alloca i32, align 4
  %2 = alloca i32, align 4
  %3 = call i32 (i8*, ...) @__isoc99_scanf(i8* getelementptr inbounds ([3 x i8], [3 x i8]* @.str, i64 0, i64 0), i32* %1)
  store i32 1, i32* %2, align 4
  br label %4

4:                                                ; preds = %16, %0
  %5 = load i32, i32* %2, align 4
  %6 = icmp sle i32 %5, 12
  br i1 %6, label %7, label %19

7:                                                ; preds = %4
  %8 = load i32, i32* %1, align 4
  %9 = load i32, i32* %2, align 4
  %10 = call i32 @f(i32 %8, i32 %9, i32 13)
  %11 = icmp eq i32 %10, 5
  br i1 %11, label %12, label %15

12:                                               ; preds = %7
  %13 = load i32, i32* %2, align 4
  %14 = call i32 (i8*, ...) @printf(i8* getelementptr inbounds ([4 x i8], [4 x i8]* @.str.1, i64 0, i64 0), i32 %13)
  br label %15

15:                                               ; preds = %12, %7
  br label %16

16:                                               ; preds = %15
  %17 = load i32, i32* %2, align 4
  %18 = add nsw i32 %17, 1
  store i32 %18, i32* %2, align 4
  br label %4

19:                                               ; preds = %4
  ret void
}

declare dso_local i32 @__isoc99_scanf(i8*, ...) #1

declare dso_local i32 @printf(i8*, ...) #1


!llvm.module.flags = !{!0}
!llvm.ident = !{!1}

!0 = !{i32 1, !"wchar_size", i32 4}
!1 = !{!"clang version 10.0.0-4ubuntu1 "}
